; Function Attrs: nounwind uwtable
define zeroext i8 @l_Lean_Environment_isNamespace(ptr noundef %0, ptr noundef %1) local_unnamed_addr #0 {
  %3 = load ptr, ptr @l_Lean_namespacesExt, align 8, !tbaa !4
  %4 = getelementptr inbounds nuw i8, ptr %3, i64 8
  %5 = load ptr, ptr %4, align 8, !tbaa !4
  %6 = ptrtoint ptr %5 to i64
  %7 = and i64 %6, 1
  %.not = icmp eq i64 %7, 0
  br i1 %.not, label %8, label %lean_inc.exit

8:                                                ; preds = %2
  %.val.i = load i32, ptr %5, align 4, !tbaa !8
  %9 = icmp sgt i32 %.val.i, 0
  br i1 %9, label %10, label %12, !prof !11

10:                                               ; preds = %8
  %11 = add nuw i32 %.val.i, 1
  store i32 %11, ptr %5, align 4, !tbaa !8
  br label %18

12:                                               ; preds = %8
  %.not.i10 = icmp eq i32 %.val.i, 0
  br i1 %.not.i10, label %.thread11, label %15

.thread11:                                        ; preds = %12
  %13 = getelementptr inbounds nuw i8, ptr %5, i64 32
  %14 = load i8, ptr %13, align 1, !tbaa !15
  br label %lean_dec.exit

15:                                               ; preds = %12
  tail call void @lean_inc_ref_cold(ptr noundef nonnull %5) #3
  %.pr = load i32, ptr %5, align 4, !tbaa !8
  br label %18

lean_inc.exit:                                    ; preds = %2
  %16 = getelementptr inbounds nuw i8, ptr %5, i64 32
  %17 = load i8, ptr %16, align 1, !tbaa !15
  br label %lean_dec.exit

18:                                               ; preds = %15, %10
  %19 = phi i32 [ %.pr, %15 ], [ %11, %10 ]
  %20 = getelementptr inbounds nuw i8, ptr %5, i64 32
  %21 = load i8, ptr %20, align 1, !tbaa !15
  %22 = icmp sgt i32 %19, 1
  br i1 %22, label %23, label %25, !prof !16

23:                                               ; preds = %18
  %24 = add nsw i32 %19, -1
  store i32 %24, ptr %5, align 4, !tbaa !8
  br label %lean_dec.exit

25:                                               ; preds = %18
  %.not.i = icmp eq i32 %19, 0
  br i1 %.not.i, label %lean_dec.exit, label %26

26:                                               ; preds = %25
  tail call void @lean_dec_ref_cold(ptr noundef nonnull %5) #3
  br label %lean_dec.exit

lean_dec.exit:                                    ; preds = %26, %25, %23, %.thread11, %lean_inc.exit
  %27 = phi i8 [ %17, %lean_inc.exit ], [ %21, %23 ], [ %21, %25 ], [ %21, %26 ], [ %14, %.thread11 ]
  %28 = load ptr, ptr @l_Lean_NameSSet_instInhabited, align 8, !tbaa !4
  %29 = load ptr, ptr @l_Lean_Environment_registerNamespace___closed__1, align 8, !tbaa !4
  %30 = tail call ptr @l_Lean_SimplePersistentEnvExtension_getState___rarg(ptr noundef %28, ptr noundef %29, ptr noundef %0, i8 noundef zeroext %27) #3
  %31 = tail call zeroext i8 @l_Lean_SMap_contains___at_Lean_NameSSet_contains___spec__1(ptr noundef %30, ptr noundef %1) #3
  ret i8 %31
}